; Function Attrs: nounwind uwtable
define ptr @prte_hwloc_base_get_obj_by_type(ptr noundef %0, i32 noundef %1, i32 noundef %2) local_unnamed_addr #0 {
  %4 = icmp eq i32 %1, 13
  br i1 %4, label %5, label %33

5:                                                ; preds = %3
  %6 = tail call ptr @hwloc_get_obj_by_depth(ptr noundef readonly %0, i32 noundef 0, i32 noundef 0) #19
  %7 = getelementptr inbounds nuw i8, ptr %6, i64 232
  %8 = load ptr, ptr %7, align 8, !tbaa !24
  %9 = icmp eq ptr %8, null
  br i1 %9, label %hwloc_get_obj_by_type.exit, label %.preheader25

.preheader25:                                     ; preds = %5
  %10 = getelementptr inbounds nuw i8, ptr %8, i64 124
  %11 = load i32, ptr %10, align 4, !tbaa !40
  %.not = icmp eq i32 %11, 0
  br i1 %.not, label %hwloc_get_obj_by_type.exit, label %.preheader

.preheader:                                       ; preds = %.preheader25, %hwloc_get_numanode_obj_by_os_index.exit.thread
  %.01727 = phi i32 [ %30, %hwloc_get_numanode_obj_by_os_index.exit.thread ], [ 0, %.preheader25 ]
  %.01826 = phi i32 [ %.1, %hwloc_get_numanode_obj_by_os_index.exit.thread ], [ 0, %.preheader25 ]
  br label %12

12:                                               ; preds = %.preheader, %23
  %.0.i = phi ptr [ %.0.i.i, %23 ], [ null, %.preheader ]
  %13 = tail call i32 @hwloc_get_type_depth(ptr noundef %0, i32 noundef 13) #18
  %or.cond.i.i = icmp ugt i32 %13, -3
  br i1 %or.cond.i.i, label %hwloc_get_numanode_obj_by_os_index.exit.thread, label %14

14:                                               ; preds = %12
  %.not.i.i.i = icmp eq ptr %.0.i, null
  br i1 %.not.i.i.i, label %15, label %17

15:                                               ; preds = %14
  %16 = tail call ptr @hwloc_get_obj_by_depth(ptr noundef readonly %0, i32 noundef range(i32 0, -2) %13, i32 noundef 0) #19
  br label %hwloc_get_next_obj_by_type.exit.i

17:                                               ; preds = %14
  %18 = getelementptr inbounds nuw i8, ptr %.0.i, i64 48
  %19 = load i32, ptr %18, align 8, !tbaa !41
  %.not7.i.i.i = icmp eq i32 %19, %13
  br i1 %.not7.i.i.i, label %20, label %hwloc_get_numanode_obj_by_os_index.exit.thread

20:                                               ; preds = %17
  %21 = getelementptr inbounds nuw i8, ptr %.0.i, i64 56
  %22 = load ptr, ptr %21, align 8, !tbaa !42
  br label %hwloc_get_next_obj_by_type.exit.i

hwloc_get_next_obj_by_type.exit.i:                ; preds = %20, %15
  %.0.i.i = phi ptr [ %22, %20 ], [ %16, %15 ]
  %.not.i = icmp eq ptr %.0.i.i, null
  br i1 %.not.i, label %hwloc_get_numanode_obj_by_os_index.exit.thread, label %23

23:                                               ; preds = %hwloc_get_next_obj_by_type.exit.i
  %24 = getelementptr inbounds nuw i8, ptr %.0.i.i, i64 16
  %25 = load i32, ptr %24, align 8, !tbaa !43
  %26 = icmp eq i32 %25, %.01727
  br i1 %26, label %hwloc_get_numanode_obj_by_os_index.exit, label %12, !llvm.loop !44

hwloc_get_numanode_obj_by_os_index.exit:          ; preds = %23
  %27 = icmp eq i32 %.01826, %2
  br i1 %27, label %hwloc_get_obj_by_type.exit, label %28

28:                                               ; preds = %hwloc_get_numanode_obj_by_os_index.exit
  %29 = add i32 %.01826, 1
  br label %hwloc_get_numanode_obj_by_os_index.exit.thread

hwloc_get_numanode_obj_by_os_index.exit.thread:   ; preds = %17, %12, %hwloc_get_next_obj_by_type.exit.i, %28
  %.1 = phi i32 [ %29, %28 ], [ %.01826, %hwloc_get_next_obj_by_type.exit.i ], [ %.01826, %12 ], [ %.01826, %17 ]
  %30 = add nuw i32 %.01727, 1
  %31 = load i32, ptr %10, align 4, !tbaa !40
  %32 = icmp ult i32 %30, %31
  br i1 %32, label %.preheader, label %hwloc_get_obj_by_type.exit, !llvm.loop !84

33:                                               ; preds = %3
  %34 = tail call i32 @hwloc_get_type_depth(ptr noundef %0, i32 noundef range(i32 14, 13) %1) #18
  %switch.i = icmp ugt i32 %34, -3
  br i1 %switch.i, label %hwloc_get_obj_by_type.exit, label %35

35:                                               ; preds = %33
  %36 = tail call ptr @hwloc_get_obj_by_depth(ptr noundef %0, i32 noundef %34, i32 noundef %2) #19
  br label %hwloc_get_obj_by_type.exit

hwloc_get_obj_by_type.exit:                       ; preds = %hwloc_get_numanode_obj_by_os_index.exit, %hwloc_get_numanode_obj_by_os_index.exit.thread, %.preheader25, %35, %33, %5
  %.0 = phi ptr [ null, %5 ], [ %36, %35 ], [ null, %33 ], [ null, %.preheader25 ], [ %.0.i.i, %hwloc_get_numanode_obj_by_os_index.exit ], [ null, %hwloc_get_numanode_obj_by_os_index.exit.thread ]
  ret ptr %.0
}